(dp0
S'coco'
p1
(S'10e26bfb75154f37f5cc9bb97d2eb63307be4e2cf3cd7f0ff9f35cd36c391f02'
p2
S'I\xd5\xe11\x84\xda'
p3
tp4
sS'bob'
p5
(S'dee70cfa3ed22aaa03d8243198479646c52ae220a14e52d65cc17c406665a254'
p6
S'f\xc7g\xc1\xf5#'
p7
tp8
sS'alice'
p9
(S'911915e221a934efdad0a32691620c301f63450e4abd30f0d53ba1c69e2adab7'
p10
S'\xe5\xa9\xbd\xdbs\xdd'
p11
tp12
s.