(dp0
S'coco'
p1
(S'd4fa80200a9abcbb8c67d21af49131c8377b402e1c4b953bbf64e13ed83f71e0'
p2
S'\xe0\xea\x7f\x92sE'
p3
tp4
sS'bob'
p5
(S'c06150d0692b949ea3aec3029a8fe22284dc385cb3a01b6da3b8ecffe9b3410a'
p6
S'\x03q8\xd0\xb7\x94'
p7
tp8
sS'eli'
p9
(S'55c3b462e90e7f40ade049e181833f0af401c84241d3db2bb44f28cbb652d574'
p10
S'\xd0\xe7\xd0"\x82\x97'
p11
tp12
sS'derek'
p13
(S'4ac6711b7ca8f7e4cbb973f9b76a7e644b319955e4e10fbf4b22b288935a6ae1'
p14
S'\xa9\xb7\x9b\xf1\x8b\x81'
p15
tp16
sS'alice'
p17
(S'25b74100eb4b569f7d20c8baffd30b56b0e4dd388c5260413c08035cc5a57c95'
p18
S',\xa0\x17\x18 s'
p19
tp20
s.