(dp0
S'admin'
p1
(S'58bb0eab535297d73ba7c6c4f82758c885a76a40bd88bb3a305e0f6b46625097'
p2
S'lX\xd6I\xc2c'
p3
tp4
sS'user2'
p5
(S'd91a8a1061dce1b2e07ad3b6af2258b1249b0b887933f1cb29a2b2dc62dc452b'
p6
S'\xd6s\x07R\xbf\xc2'
p7
tp8
sS'user1'
p9
(S'e48d759db8581fdefeb9c36ee4658e6686049742424bd2f7ae875f869b388193'
p10
S'\xce\x9fC\xd8\xf9\xeb'
p11
tp12
s.