(dp0
S'admin'
p1
(S'c8798aff5fd5a9f14b1cd58e00574da51854a3f86155a0aadf67f7cd2286bb68'
p2
S'/\xba\xc9\x9dXF'
p3
tp4
sS'user2'
p5
(S'47f1b53135e40c04038924d72471bb454a6d854ffd75d2961d9d30b9d11b8cb9'
p6
S'\x1b\xa2\xe7\xef\xdc\xdb'
p7
tp8
sS'user1'
p9
(S'861662842773e5023d7c6d9f05b457e781e66e32bd3ded612e816bb958cffab4'
p10
S'\x93)\xb9`\xc2S'
p11
tp12
s.