(dp0
S'admin'
p1
(S'ca3902b8613a5955cdf53689444d5cb89980a0d597755caa079328a605ebd994'
p2
S'\x0c\xf5;+\xd4\xc4'
p3
tp4
sS'user2'
p5
(S'9cf8bd4f5b9437d24234f1684add5d7a29a55d375d402b95883f35263cf283bc'
p6
S'\xd0\x90I[\x17\xf8'
p7
tp8
sS'user1'
p9
(S'377e7406b9b93d8058fc87fb6c85e3cf473b54154bf09b708463b1ed249c9532'
p10
S'Z=q\xdak\xd9'
p11
tp12
s.