(dp0
S'admin'
p1
(S'5cf197d5aa81ea0d150407133a9462a93132e3362c0a0f77971e0dd92b8128b9'
p2
S'\xcd?P\x1b\xfdU'
p3
tp4
sS'user2'
p5
(S'9933e4bc81677cabad61b745b0ed45456f5843cdb6ba053fef83f486e003dd52'
p6
S'>\x00Y\xa1\x08\xa4'
p7
tp8
sS'user1'
p9
(S'468968ca01cad7c827ede8dd78408ec481982127f262d9e37edd61efd5b8b0c4'
p10
S'\x7f\xc1~\x88t\xce'
p11
tp12
s.