(dp0
S'admin'
p1
(S'bdf4d7f9b1e310b679a78e15ef0b1fc8e97b364d7d05721bb0ccf91b4e937f5f'
p2
S'\xf5:\r\xa4n\xd6'
p3
tp4
sS'user2'
p5
(S'3a4ec80b02746aebc449977fd4dff88437fe253711f4328124cd72be2caf64ec'
p6
S'\x081%\xf4\xaa`'
p7
tp8
sS'user1'
p9
(S'6f9b69fc08cb6beca6ff5be210e6145322c362945582c566af472f8e38a48dd7'
p10
S'|u\xcbP\x08\x85'
p11
tp12
s.