(dp0
S'admin'
p1
(S'bc8f6f2a7a7be6e14924d28fef8640f79066bb0f5bef5b174118668f6620dcb2'
p2
S"I\x88S'a\x03"
p3
tp4
sS'user2'
p5
(S'ee4a5ad3d792e56c0ed1c0783a00609b32e1ce99165b5634e16e8ed66ca27795'
p6
S'w\xf3\x1a\xdc\x9c\x8d'
p7
tp8
sS'user1'
p9
(S'35ac6b8754e0642b5875103e57d3c9bfc91bff7d28a1ec62c3a08a6f8ab6352d'
p10
S'M|V-e\x18'
p11
tp12
s.