(dp0
S'admin'
p1
(S'cb0cf336fdb7709f19e3baa328d1dcc06cc3ac775c9bf485d2f11411e2a09098'
p2
S'\xbc\x87\xdc\x7fH\xa2'
p3
tp4
sS'user2'
p5
(S'c9267d38508390e68a417ed49d26c6fc60e4a3de1d2991a25589d4d9438546e3'
p6
S'FM+uB.'
p7
tp8
sS'user1'
p9
(S'd21cb6db0975eba40eedc1a1a1fb9c96dc2b4f953c865f35682da4e72be17672'
p10
S'\xa9O\x0b\xae\xce\x9c'
p11
tp12
s.