(dp0
S'admin'
p1
(S'2242ff934bf8f38746d2bbfc3e6f239490365298f71a85e693d46480f7a067cb'
p2
S'\x18@\xe3B\x87\xcc'
p3
tp4
sS'user2'
p5
(S'8f1b45c48aaa84150f4d2192e98ac9e4819f488b6d91cc00c181094685aa50c2'
p6
S'\x99$\x0f\xfa\xd4\xfb'
p7
tp8
sS'user1'
p9
(S'9088bbf7f944d5a89d5a6b1031c76763c69846169ccc2c1737d6f51963b63e3c'
p10
S'\xb9\xa2i4\xbf\x88'
p11
tp12
s.