(dp0
S'admin'
p1
(S'e16fff2a5cd95655975e95d46ab24328f8b00f4831f0f8a7b72ee96d6d078dbb'
p2
S'r\x84\xadb\xacC'
p3
tp4
sS'user2'
p5
(S'89dac0baf63a9c0a8e6b7f0134209fe96468d496ac0a8e2883faa73cc3ce556d'
p6
S'R\x10\xa9\xf4\x81D'
p7
tp8
sS'user1'
p9
(S'9fce014567e3b969bad4b9683bb40afef3a444375547f0a0649445a92ddd50b5'
p10
S'Y\x87\x9fK\xc7\xdb'
p11
tp12
s.