(dp0
S'admin'
p1
(S'92939fde9e89d27f60c173b7c2b3a83d635659f0cb7e7dbd954d4e8027a83367'
p2
S'c\nuo\xed='
p3
tp4
sS'user2'
p5
(S'63c9510c4ee8129789ce7968bf0f3b4c51f1f562d5a44890a87d96a9f8d32607'
p6
S'd\x91\xabn\xe2\xfc'
p7
tp8
sS'user1'
p9
(S'20c2c1b2f592984d5d84a23161ba444a71b93cf8f6a02a59863e8a0f9d904416'
p10
S'\xd2\xe0K\xdcn\x87'
p11
tp12
s.