(dp0
S'admin'
p1
(S'fb114e46029bd52542af6a0aa40fa52133a146d1a8ab4b3be9cc36ce2b3e1c81'
p2
S'\x00\xc4\x19K\xdb\xee'
p3
tp4
sS'user2'
p5
(S'289371d49b4ee7b1e7205f3c83926c028033e14db9523e658ee3036cf75a7832'
p6
S'\xc1R\xbb\xd4\x04\xbd'
p7
tp8
sS'user1'
p9
(S'3321cb3ab195a5eb8cac4191815a9d967e5beb128f57f5668dba6b07d2679f92'
p10
S'\x11<}\xce\x13\xae'
p11
tp12
s.