(dp0
S'admin'
p1
(S'62898b208dde14087290d6bc8a546a2d87b968451aa03f433b961d92a1720312'
p2
S'\xf7bV\xbfLW'
p3
tp4
sS'user2'
p5
(S'4553dc76f1bae220d1f419e56bba2e93910ac9904d90b460be4b705c3e41186f'
p6
S'\x96\xeaC\r\\}'
p7
tp8
sS'user1'
p9
(S'4f43781085cf8ddcb24173e4c56a329efc9f877a877dd0e0bf4b5d44a1586126'
p10
S'8p\xf4\xf2a\xc8'
p11
tp12
s.