(dp0
S'admin'
p1
(S'd2a4a6ca1bfe5cd4d09e2c3bea328153ea2e97a6dd35b2182f73228edf1d476e'
p2
S'\xc4\x87\xa2\xa9\xf1P'
p3
tp4
sS'user2'
p5
(S'c7d435d338695153959a3e543744ea33f05d94de915a926ed027e5b0b2f99ae4'
p6
S"\xb0\xe5\xb5'\x06\xc2"
p7
tp8
sS'user1'
p9
(S'6e2325c9875f7c4b8d1b5c315a043e194fe87da6caae1207429c81cb11bee8f9'
p10
S'\xdaT(l\xa7\xef'
p11
tp12
s.