(dp0
S'admin'
p1
(S'05e4dc4b100b950fc27add70921c2520478c03857f8e103503490031ea6bbe75'
p2
S'\xd7F\x9eo\xb7\x95'
p3
tp4
sS'user2'
p5
(S'2d2e67eb1a36b22f29982dae207b22411fdde17c19f52e95771d7a5939531f23'
p6
S'l_\xb4p\xe6\x92'
p7
tp8
sS'user1'
p9
(S'2a57a0bf658b52aecbaffd59f917fae934244e83f2106803d7c13d12dc6aaf1d'
p10
S'\xa4\x91\xdd{\xbdk'
p11
tp12
s.