(dp0
S'admin'
p1
(S'488051fe6505b5b4c8cf9c94ba5e060283b37ba697c6f50da5c0127f755dc80a'
p2
S'\xe9\x08E$\x8bD'
p3
tp4
sS'user2'
p5
(S'36160c19dbf0dd35c3c22fb59d4347219f3e5565b27edeea771fb7f0c12a3778'
p6
S'Y\x8c\xcd\xb9\xe5\xce'
p7
tp8
sS'user1'
p9
(S'f750d45d5a38e34366510f69038013274169f1c2a22fdca16e49785188a02b43'
p10
S'\x9d\xacB\xec\xbdf'
p11
tp12
s.