(dp0
S'admin'
p1
(S'5d19a45239902e7cb1160403b7939090848678cab98630345e16f3f2aaa5cc20'
p2
S'\xa8b2\x03\xb7\x9d'
p3
tp4
sS'user2'
p5
(S'64c6e87ba3d710f05d8865e0bc791feace606c7bfa52504d3530d30117e78095'
p6
S'CX\xea\x92\x1cD'
p7
tp8
sS'user1'
p9
(S'8e25239467fe31ddcb1dfa16525bbdf46cf3b23a90576949b48dedd92d9550a5'
p10
S'0\xd0\xfe\xf97`'
p11
tp12
s.